target datalayout = "e-m:e-p270:32:32-p271:32:32-p272:64:64-i64:64-i128:128-f80:128-n8:16:32:64-S128"
target triple = "x86_64-pc-linux-gnu"

%struct.ftp_wc = type { ptr, %struct.anon.5 }
%struct.anon.5 = type { ptr, ptr }

@Curl_cfree = external global ptr, align 8

; Function Attrs: nounwind uwtable
define internal void @wc_data_dtor(ptr noundef %0) #0 {
  %2 = alloca ptr, align 8
  %3 = alloca ptr, align 8
  store ptr %0, ptr %2, align 8, !tbaa !14
  call void @llvm.lifetime.start.p0(i64 8, ptr %3) #9
  %4 = load ptr, ptr %2, align 8, !tbaa !14
  store ptr %4, ptr %3, align 8, !tbaa !252
  %5 = load ptr, ptr %3, align 8, !tbaa !252
  %6 = icmp ne ptr %5, null
  br i1 %6, label %7, label %15

7:                                                ; preds = %1
  %8 = load ptr, ptr %3, align 8, !tbaa !252
  %9 = getelementptr inbounds nuw %struct.ftp_wc, ptr %8, i32 0, i32 0
  %10 = load ptr, ptr %9, align 8, !tbaa !260
  %11 = icmp ne ptr %10, null
  br i1 %11, label %12, label %15

12:                                               ; preds = %7
  %13 = load ptr, ptr %3, align 8, !tbaa !252
  %14 = getelementptr inbounds nuw %struct.ftp_wc, ptr %13, i32 0, i32 0
  call void @Curl_ftp_parselist_data_free(ptr noundef %14)
  br label %15

15:                                               ; preds = %12, %7, %1
  %16 = load ptr, ptr @Curl_cfree, align 8, !tbaa !14
  %17 = load ptr, ptr %3, align 8, !tbaa !252
  call void %16(ptr noundef %17)
  call void @llvm.lifetime.end.p0(i64 8, ptr %3) #9
  ret void
}