; Function Attrs: nounwind uwtable
define internal void @wc_data_dtor(ptr noundef %0) #0 {
  %.not = icmp eq ptr %0, null
  br i1 %.not, label %5, label %2

2:                                                ; preds = %1
  %3 = load ptr, ptr %0, align 8, !tbaa !113
  %.not5 = icmp eq ptr %3, null
  br i1 %.not5, label %5, label %4

4:                                                ; preds = %2
  tail call void @Curl_ftp_parselist_data_free(ptr noundef nonnull %0) #10
  br label %5

5:                                                ; preds = %4, %2, %1
  %6 = load ptr, ptr @Curl_cfree, align 8, !tbaa !3
  tail call void %6(ptr noundef %0) #10
  ret void
}